target datalayout = "e-m:e-p270:32:32-p271:32:32-p272:64:64-i64:64-i128:128-f80:128-n8:16:32:64-S128"
target triple = "x86_64-pc-linux-gnu"

; Function Attrs: nounwind uwtable
define void @Cba_BlastShiftRight(ptr noundef %0, ptr noundef %1, i32 noundef %2, ptr noundef %3, i32 noundef %4, i32 noundef %5, ptr noundef %6) #0 {
  %8 = alloca ptr, align 8
  %9 = alloca ptr, align 8
  %10 = alloca i32, align 4
  %11 = alloca ptr, align 8
  %12 = alloca i32, align 4
  %13 = alloca i32, align 4
  %14 = alloca ptr, align 8
  %15 = alloca ptr, align 8
  %16 = alloca i32, align 4
  %17 = alloca i32, align 4
  %18 = alloca i32, align 4
  %19 = alloca i32, align 4
  store ptr %0, ptr %8, align 8
  store ptr %1, ptr %9, align 8
  store i32 %2, ptr %10, align 4
  store ptr %3, ptr %11, align 8
  store i32 %4, ptr %12, align 4
  store i32 %5, ptr %13, align 4
  store ptr %6, ptr %14, align 8
  %20 = load ptr, ptr %14, align 8
  %21 = load ptr, ptr %9, align 8
  %22 = load i32, ptr %10, align 4
  %23 = call ptr @Cba_VecCopy(ptr noundef %20, ptr noundef %21, i32 noundef %22)
  store ptr %23, ptr %15, align 8
  %24 = load i32, ptr %13, align 4
  %25 = icmp ne i32 %24, 0
  br i1 %25, label %26, label %33

26:                                               ; preds = %7
  %27 = load ptr, ptr %9, align 8
  %28 = load i32, ptr %10, align 4
  %29 = sub nsw i32 %28, 1
  %30 = sext i32 %29 to i64
  %31 = getelementptr inbounds i32, ptr %27, i64 %30
  %32 = load i32, ptr %31, align 4
  br label %34

33:                                               ; preds = %7
  br label %34

34:                                               ; preds = %33, %26
  %35 = phi i32 [ %32, %26 ], [ 0, %33 ]
  store i32 %35, ptr %16, align 4
  store i32 0, ptr %19, align 4
  %36 = load i32, ptr %12, align 4
  %37 = icmp sgt i32 %36, 32
  br i1 %37, label %38, label %39

38:                                               ; preds = %34
  store i32 32, ptr %12, align 4
  br label %39

39:                                               ; preds = %38, %34
  store i32 0, ptr %17, align 4
  br label %40

40:                                               ; preds = %115, %39
  %41 = load i32, ptr %17, align 4
  %42 = load i32, ptr %12, align 4
  %43 = icmp slt i32 %41, %42
  br i1 %43, label %44, label %118

44:                                               ; preds = %40
  store i32 0, ptr %18, align 4
  br label %45

45:                                               ; preds = %111, %44
  %46 = load i32, ptr %18, align 4
  %47 = load i32, ptr %10, align 4
  %48 = load i32, ptr %13, align 4
  %49 = sub nsw i32 %47, %48
  %50 = icmp slt i32 %46, %49
  br i1 %50, label %51, label %114

51:                                               ; preds = %45
  %52 = load i32, ptr %19, align 4
  %53 = icmp ne i32 %52, 0
  br i1 %53, label %61, label %54

54:                                               ; preds = %51
  %55 = load i32, ptr %18, align 4
  %56 = load i32, ptr %17, align 4
  %57 = shl i32 1, %56
  %58 = add nsw i32 %55, %57
  %59 = load i32, ptr %10, align 4
  %60 = icmp sge i32 %58, %59
  br i1 %60, label %61, label %85

61:                                               ; preds = %54, %51
  %62 = load ptr, ptr %8, align 8
  %63 = load ptr, ptr %11, align 8
  %64 = load i32, ptr %17, align 4
  %65 = sext i32 %64 to i64
  %66 = getelementptr inbounds i32, ptr %63, i64 %65
  %67 = load i32, ptr %66, align 4
  %68 = load i32, ptr %16, align 4
  %69 = load ptr, ptr %15, align 8
  %70 = load i32, ptr %18, align 4
  %71 = sext i32 %70 to i64
  %72 = getelementptr inbounds i32, ptr %69, i64 %71
  %73 = load i32, ptr %72, align 4
  %74 = call i32 @Gia_ManHashMux(ptr noundef %62, i32 noundef %67, i32 noundef %68, i32 noundef %73)
  %75 = load ptr, ptr %15, align 8
  %76 = load i32, ptr %18, align 4
  %77 = sext i32 %76 to i64
  %78 = getelementptr inbounds i32, ptr %75, i64 %77
  store i32 %74, ptr %78, align 4
  %79 = load i32, ptr %17, align 4
  %80 = shl i32 1, %79
  %81 = load i32, ptr %10, align 4
  %82 = icmp sgt i32 %80, %81
  br i1 %82, label %83, label %84

83:                                               ; preds = %61
  store i32 1, ptr %19, align 4
  br label %84

84:                                               ; preds = %83, %61
  br label %110

85:                                               ; preds = %54
  %86 = load ptr, ptr %8, align 8
  %87 = load ptr, ptr %11, align 8
  %88 = load i32, ptr %17, align 4
  %89 = sext i32 %88 to i64
  %90 = getelementptr inbounds i32, ptr %87, i64 %89
  %91 = load i32, ptr %90, align 4
  %92 = load ptr, ptr %15, align 8
  %93 = load i32, ptr %18, align 4
  %94 = load i32, ptr %17, align 4
  %95 = shl i32 1, %94
  %96 = add nsw i32 %93, %95
  %97 = sext i32 %96 to i64
  %98 = getelementptr inbounds i32, ptr %92, i64 %97
  %99 = load i32, ptr %98, align 4
  %100 = load ptr, ptr %15, align 8
  %101 = load i32, ptr %18, align 4
  %102 = sext i32 %101 to i64
  %103 = getelementptr inbounds i32, ptr %100, i64 %102
  %104 = load i32, ptr %103, align 4
  %105 = call i32 @Gia_ManHashMux(ptr noundef %86, i32 noundef %91, i32 noundef %99, i32 noundef %104)
  %106 = load ptr, ptr %15, align 8
  %107 = load i32, ptr %18, align 4
  %108 = sext i32 %107 to i64
  %109 = getelementptr inbounds i32, ptr %106, i64 %108
  store i32 %105, ptr %109, align 4
  br label %110

110:                                              ; preds = %85, %84
  br label %111

111:                                              ; preds = %110
  %112 = load i32, ptr %18, align 4
  %113 = add nsw i32 %112, 1
  store i32 %113, ptr %18, align 4
  br label %45, !llvm.loop !15

114:                                              ; preds = %45
  br label %115

115:                                              ; preds = %114
  %116 = load i32, ptr %17, align 4
  %117 = add nsw i32 %116, 1
  store i32 %117, ptr %17, align 4
  br label %40, !llvm.loop !16

118:                                              ; preds = %40
  ret void
}